; Function Attrs: mustprogress uwtable
define void @_Z58grpc_deadline_state_client_start_transport_stream_op_batchP19grpc_deadline_stateP30grpc_transport_stream_op_batch(ptr noundef %deadline_state, ptr nocapture noundef readonly %op) local_unnamed_addr #3 {
entry:
  %cancel_stream = getelementptr inbounds i8, ptr %op, i64 16
  %bf.load = load i8, ptr %cancel_stream, align 8
  %0 = and i8 %bf.load, 64
  %bf.cast.not = icmp eq i8 %0, 0
  br i1 %bf.cast.not, label %if.else, label %if.then

if.then:                                          ; preds = %entry
  %timer_state.i = getelementptr inbounds i8, ptr %deadline_state, i64 32
  %1 = load ptr, ptr %timer_state.i, align 8
  %cmp.not.i = icmp eq ptr %1, null
  br i1 %cmp.not.i, label %if.end6, label %if.then.i

if.then.i:                                        ; preds = %if.then
  %timer_.i.i = getelementptr inbounds i8, ptr %1, i64 8
  tail call void @_Z17grpc_timer_cancelP10grpc_timer(ptr noundef nonnull %timer_.i.i)
  store ptr null, ptr %timer_state.i, align 8
  br label %if.end6

if.else:                                          ; preds = %entry
  %2 = and i8 %bf.load, 32
  %bf.cast4.not = icmp eq i8 %2, 0
  br i1 %bf.cast4.not, label %if.end6, label %if.then5

if.then5:                                         ; preds = %if.else
  %payload.i = getelementptr inbounds i8, ptr %op, i64 8
  %3 = load ptr, ptr %payload.i, align 8
  %recv_trailing_metadata_ready.i = getelementptr inbounds i8, ptr %3, i64 112
  %4 = load ptr, ptr %recv_trailing_metadata_ready.i, align 8
  %original_recv_trailing_metadata_ready.i = getelementptr inbounds i8, ptr %deadline_state, i64 72
  store ptr %4, ptr %original_recv_trailing_metadata_ready.i, align 8
  %recv_trailing_metadata_ready1.i = getelementptr inbounds i8, ptr %deadline_state, i64 40
  %cb1.i.i = getelementptr inbounds i8, ptr %deadline_state, i64 48
  store ptr @_ZL28recv_trailing_metadata_readyPvN4absl12lts_202308026StatusE, ptr %cb1.i.i, align 8
  %cb_arg2.i.i = getelementptr inbounds i8, ptr %deadline_state, i64 56
  store ptr %deadline_state, ptr %cb_arg2.i.i, align 8
  %error_data.i.i = getelementptr inbounds i8, ptr %deadline_state, i64 64
  store i64 0, ptr %error_data.i.i, align 8
  %5 = load ptr, ptr %payload.i, align 8
  %recv_trailing_metadata_ready5.i = getelementptr inbounds i8, ptr %5, i64 112
  store ptr %recv_trailing_metadata_ready1.i, ptr %recv_trailing_metadata_ready5.i, align 8
  br label %if.end6

if.end6:                                          ; preds = %if.then.i, %if.then, %if.else, %if.then5
  ret void
}